; Function Attrs: null_pointer_is_valid sspstrong uwtable
define hidden void @proto_register_h265() local_unnamed_addr #0 {
  %1 = tail call i32 @proto_register_protocol(ptr noundef nonnull @.str.628, ptr noundef nonnull @.str.628, ptr noundef nonnull @.str.629)
  store i32 %1, ptr @proto_h265, align 4
  tail call void @proto_register_field_array(i32 noundef %1, ptr noundef nonnull @proto_register_h265.hf, i32 noundef 310)
  tail call void @proto_register_subtree_array(ptr noundef nonnull @proto_register_h265.ett, i32 noundef 19)
  %2 = load i32, ptr @proto_h265, align 4
  %3 = tail call ptr @expert_register_protocol(i32 noundef %2)
  tail call void @expert_register_field_array(ptr noundef %3, ptr noundef nonnull @proto_register_h265.ei, i32 noundef 4)
  %4 = load i32, ptr @proto_h265, align 4
  %5 = tail call ptr @prefs_register_protocol(i32 noundef %4, ptr noundef null)
  tail call void @prefs_register_obsolete_preference(ptr noundef %5, ptr noundef nonnull @.str.630)
  %6 = load i32, ptr @proto_h265, align 4
  %7 = tail call ptr @register_dissector(ptr noundef nonnull @.str.629, ptr noundef nonnull @dissect_h265, i32 noundef %6)
  store ptr %7, ptr @h265_handle, align 8
  %8 = load i32, ptr @proto_h265, align 4
  %9 = tail call ptr @register_dissector_with_description(ptr noundef nonnull @.str.631, ptr noundef nonnull @.str.632, ptr noundef nonnull @dissect_h265_bytestream, i32 noundef %8)
  ret void
}